; ModuleID = '13/962.cpp'
source_filename = "13/962.cpp"
target datalayout = "e-m:e-p270:32:32-p271:32:32-p272:64:64-i64:64-f80:128-n8:16:32:64-S128"
target triple = "x86_64-pc-linux-gnu"

%"class.std::ios_base::Init" = type { i8 }
%"class.std::basic_istream" = type { i32 (...)**, i64, %"class.std::basic_ios" }
%"class.std::basic_ios" = type { %"class.std::ios_base", %"class.std::basic_ostream"*, i8, i8, %"class.std::basic_streambuf"*, %"class.std::ctype"*, %"class.std::num_put"*, %"class.std::num_get"* }
%"class.std::ios_base" = type { i32 (...)**, i64, i64, i32, i32, i32, %"struct.std::ios_base::_Callback_list"*, %"struct.std::ios_base::_Words", [8 x %"struct.std::ios_base::_Words"], i32, %"struct.std::ios_base::_Words"*, %"class.std::locale" }
%"struct.std::ios_base::_Callback_list" = type { %"struct.std::ios_base::_Callback_list"*, void (i32, %"class.std::ios_base"*, i32)*, i32, i32 }
%"struct.std::ios_base::_Words" = type { i8*, i64 }
%"class.std::locale" = type { %"class.std::locale::_Impl"* }
%"class.std::locale::_Impl" = type { i32, %"class.std::locale::facet"**, i64, %"class.std::locale::facet"**, i8** }
%"class.std::locale::facet" = type <{ i32 (...)**, i32, [4 x i8] }>
%"class.std::basic_ostream" = type { i32 (...)**, %"class.std::basic_ios" }
%"class.std::basic_streambuf" = type { i32 (...)**, i8*, i8*, i8*, i8*, i8*, i8*, %"class.std::locale" }
%"class.std::ctype" = type <{ %"class.std::locale::facet.base", [4 x i8], %struct.__locale_struct*, i8, [7 x i8], i32*, i32*, i16*, i8, [256 x i8], [256 x i8], i8, [6 x i8] }>
%"class.std::locale::facet.base" = type <{ i32 (...)**, i32 }>
%struct.__locale_struct = type { [13 x %struct.__locale_data*], i16*, i32*, i32*, [13 x i8*] }
%struct.__locale_data = type opaque
%"class.std::num_put" = type { %"class.std::locale::facet.base", [4 x i8] }
%"class.std::num_get" = type { %"class.std::locale::facet.base", [4 x i8] }

@_ZStL8__ioinit = internal global %"class.std::ios_base::Init" zeroinitializer, align 1
@__dso_handle = external hidden global i8
@_ZSt3cin = external dso_local global %"class.std::basic_istream", align 8
@_ZSt4cout = external dso_local global %"class.std::basic_ostream", align 8
@.str = private unnamed_addr constant [2 x i8] c" \00", align 1
@llvm.global_ctors = appending global [1 x { i32, void ()*, i8* }] [{ i32, void ()*, i8* } { i32 65535, void ()* @_GLOBAL__sub_I_962.cpp, i8* null }]

; Function Attrs: noinline uwtable
define internal void @__cxx_global_var_init() #0 section ".text.startup" {
  call void @_ZNSt8ios_base4InitC1Ev(%"class.std::ios_base::Init"* @_ZStL8__ioinit)
  %1 = call i32 @__cxa_atexit(void (i8*)* bitcast (void (%"class.std::ios_base::Init"*)* @_ZNSt8ios_base4InitD1Ev to void (i8*)*), i8* getelementptr inbounds (%"class.std::ios_base::Init", %"class.std::ios_base::Init"* @_ZStL8__ioinit, i32 0, i32 0), i8* @__dso_handle) #3
  ret void
}

declare dso_local void @_ZNSt8ios_base4InitC1Ev(%"class.std::ios_base::Init"*) unnamed_addr #1

; Function Attrs: nounwind
declare dso_local void @_ZNSt8ios_base4InitD1Ev(%"class.std::ios_base::Init"*) unnamed_addr #2

; Function Attrs: nounwind
declare dso_local i32 @__cxa_atexit(void (i8*)*, i8*, i8*) #3

; Function Attrs: noinline norecurse uwtable
define dso_local i32 @main() #4 {
  %1 = alloca i32, align 4
  %2 = alloca i32, align 4
  %3 = alloca i32, align 4
  %4 = alloca i32, align 4
  %5 = alloca i32, align 4
  %6 = alloca [20000 x i8], align 16
  %7 = alloca [20000 x i32], align 16
  store i32 0, i32* %1, align 4
  br label %8

8:                                                ; preds = %77, %0
  %9 = call dereferenceable(280) %"class.std::basic_istream"* @_ZNSirsERi(%"class.std::basic_istream"* @_ZSt3cin, i32* dereferenceable(4) %2)
  %10 = bitcast %"class.std::basic_istream"* %9 to i8**
  %11 = load i8*, i8** %10, align 8
  %12 = getelementptr i8, i8* %11, i64 -24
  %13 = bitcast i8* %12 to i64*
  %14 = load i64, i64* %13, align 8
  %15 = bitcast %"class.std::basic_istream"* %9 to i8*
  %16 = getelementptr inbounds i8, i8* %15, i64 %14
  %17 = bitcast i8* %16 to %"class.std::basic_ios"*
  %18 = call zeroext i1 @_ZNKSt9basic_iosIcSt11char_traitsIcEEcvbEv(%"class.std::basic_ios"* %17)
  br i1 %18, label %19, label %79

19:                                               ; preds = %8
  store i32 0, i32* %4, align 4
  br label %20

20:                                               ; preds = %29, %19
  %21 = load i32, i32* %4, align 4
  %22 = load i32, i32* %2, align 4
  %23 = icmp slt i32 %21, %22
  br i1 %23, label %24, label %32

24:                                               ; preds = %20
  %25 = load i32, i32* %4, align 4
  %26 = sext i32 %25 to i64
  %27 = getelementptr inbounds [20000 x i32], [20000 x i32]* %7, i64 0, i64 %26
  %28 = call dereferenceable(280) %"class.std::basic_istream"* @_ZNSirsERi(%"class.std::basic_istream"* @_ZSt3cin, i32* dereferenceable(4) %27)
  br label %29

29:                                               ; preds = %24
  %30 = load i32, i32* %4, align 4
  %31 = add nsw i32 %30, 1
  store i32 %31, i32* %4, align 4
  br label %20

32:                                               ; preds = %20
  %33 = getelementptr inbounds [20000 x i8], [20000 x i8]* %6, i64 0, i64 0
  %34 = call dereferenceable(280) %"class.std::basic_istream"* @_ZNSi7getlineEPcl(%"class.std::basic_istream"* @_ZSt3cin, i8* %33, i64 20000)
  %35 = getelementptr inbounds [20000 x i32], [20000 x i32]* %7, i64 0, i64 0
  %36 = load i32, i32* %35, align 16
  %37 = call dereferenceable(272) %"class.std::basic_ostream"* @_ZNSolsEi(%"class.std::basic_ostream"* @_ZSt4cout, i32 %36)
  store i32 1, i32* %4, align 4
  br label %38

38:                                               ; preds = %74, %32
  %39 = load i32, i32* %4, align 4
  %40 = load i32, i32* %2, align 4
  %41 = icmp slt i32 %39, %40
  br i1 %41, label %42, label %77

42:                                               ; preds = %38
  store i32 0, i32* %5, align 4
  br label %43

43:                                               ; preds = %59, %42
  %44 = load i32, i32* %5, align 4
  %45 = load i32, i32* %4, align 4
  %46 = icmp slt i32 %44, %45
  br i1 %46, label %47, label %62

47:                                               ; preds = %43
  %48 = load i32, i32* %4, align 4
  %49 = sext i32 %48 to i64
  %50 = getelementptr inbounds [20000 x i32], [20000 x i32]* %7, i64 0, i64 %49
  %51 = load i32, i32* %50, align 4
  %52 = load i32, i32* %5, align 4
  %53 = sext i32 %52 to i64
  %54 = getelementptr inbounds [20000 x i32], [20000 x i32]* %7, i64 0, i64 %53
  %55 = load i32, i32* %54, align 4
  %56 = icmp eq i32 %51, %55
  br i1 %56, label %57, label %58

57:                                               ; preds = %47
  br label %62

58:                                               ; preds = %47
  br label %59

59:                                               ; preds = %58
  %60 = load i32, i32* %5, align 4
  %61 = add nsw i32 %60, 1
  store i32 %61, i32* %5, align 4
  br label %43

62:                                               ; preds = %57, %43
  %63 = load i32, i32* %5, align 4
  %64 = load i32, i32* %4, align 4
  %65 = icmp eq i32 %63, %64
  br i1 %65, label %66, label %73

66:                                               ; preds = %62
  %67 = call dereferenceable(272) %"class.std::basic_ostream"* @_ZStlsISt11char_traitsIcEERSt13basic_ostreamIcT_ES5_PKc(%"class.std::basic_ostream"* dereferenceable(272) @_ZSt4cout, i8* getelementptr inbounds ([2 x i8], [2 x i8]* @.str, i64 0, i64 0))
  %68 = load i32, i32* %4, align 4
  %69 = sext i32 %68 to i64
  %70 = getelementptr inbounds [20000 x i32], [20000 x i32]* %7, i64 0, i64 %69
  %71 = load i32, i32* %70, align 4
  %72 = call dereferenceable(272) %"class.std::basic_ostream"* @_ZNSolsEi(%"class.std::basic_ostream"* %67, i32 %71)
  br label %73

73:                                               ; preds = %66, %62
  br label %74

74:                                               ; preds = %73
  %75 = load i32, i32* %4, align 4
  %76 = add nsw i32 %75, 1
  store i32 %76, i32* %4, align 4
  br label %38

77:                                               ; preds = %38
  %78 = call dereferenceable(272) %"class.std::basic_ostream"* @_ZNSolsEPFRSoS_E(%"class.std::basic_ostream"* @_ZSt4cout, %"class.std::basic_ostream"* (%"class.std::basic_ostream"*)* @_ZSt4endlIcSt11char_traitsIcEERSt13basic_ostreamIT_T0_ES6_)
  br label %8

79:                                               ; preds = %8
  ret i32 0
}

declare dso_local dereferenceable(280) %"class.std::basic_istream"* @_ZNSirsERi(%"class.std::basic_istream"*, i32* dereferenceable(4)) #1

declare dso_local zeroext i1 @_ZNKSt9basic_iosIcSt11char_traitsIcEEcvbEv(%"class.std::basic_ios"*) #1

declare dso_local dereferenceable(280) %"class.std::basic_istream"* @_ZNSi7getlineEPcl(%"class.std::basic_istream"*, i8*, i64) #1

declare dso_local dereferenceable(272) %"class.std::basic_ostream"* @_ZNSolsEi(%"class.std::basic_ostream"*, i32) #1

declare dso_local dereferenceable(272) %"class.std::basic_ostream"* @_ZStlsISt11char_traitsIcEERSt13basic_ostreamIcT_ES5_PKc(%"class.std::basic_ostream"* dereferenceable(272), i8*) #1

declare dso_local dereferenceable(272) %"class.std::basic_ostream"* @_ZNSolsEPFRSoS_E(%"class.std::basic_ostream"*, %"class.std::basic_ostream"* (%"class.std::basic_ostream"*)*) #1

declare dso_local dereferenceable(272) %"class.std::basic_ostream"* @_ZSt4endlIcSt11char_traitsIcEERSt13basic_ostreamIT_T0_ES6_(%"class.std::basic_ostream"* dereferenceable(272)) #1

; Function Attrs: noinline uwtable
define internal void @_GLOBAL__sub_I_962.cpp() #0 section ".text.startup" {
  call void @__cxx_global_var_init()
  ret void
}


!llvm.module.flags = !{!0}
!llvm.ident = !{!1}

!0 = !{i32 1, !"wchar_size", i32 4}
!1 = !{!"clang version 10.0.0-4ubuntu1 "}
